; Function Attrs: nounwind uwtable
define internal noundef ptr @check_pyobject_uninitialized_is_freed(ptr readnone captures(none) %0, ptr readnone captures(none) %1) #0 {
  %3 = tail call ptr @PyObject_Malloc(i64 noundef 16) #11
  %4 = icmp eq ptr %3, null
  br i1 %4, label %test_pyobject_is_freed.exit, label %5

5:                                                ; preds = %2
  %6 = load i32, ptr %3, align 8, !tbaa !10
  %.not.i = icmp sgt i32 %6, -1
  br i1 %.not.i, label %7, label %Py_SET_REFCNT.exit

7:                                                ; preds = %5
  store i32 1, ptr %3, align 8, !tbaa !10
  br label %Py_SET_REFCNT.exit

Py_SET_REFCNT.exit:                               ; preds = %5, %7
  %8 = tail call i32 @_PyObject_IsFreed(ptr noundef nonnull %3) #11
  %.not.i5 = icmp eq i32 %8, 0
  br i1 %.not.i5, label %9, label %test_pyobject_is_freed.exit

9:                                                ; preds = %Py_SET_REFCNT.exit
  %10 = load ptr, ptr @PyExc_AssertionError, align 8, !tbaa !9
  tail call void @PyErr_SetString(ptr noundef %10, ptr noundef nonnull @.str.222) #11
  br label %test_pyobject_is_freed.exit

test_pyobject_is_freed.exit:                      ; preds = %9, %Py_SET_REFCNT.exit, %2
  %.0 = phi ptr [ null, %2 ], [ null, %9 ], [ @_Py_NoneStruct, %Py_SET_REFCNT.exit ]
  ret ptr %.0
}